; Function Attrs: mustprogress uwtable
define noundef zeroext i1 @_ZNK7rocksdb16ShardedCacheBase22HasStrictCapacityLimitEv(ptr noundef nonnull align 8 dereferenceable(152) %0) unnamed_addr #0 align 2 personality ptr @__gxx_personality_v0 {
  %2 = getelementptr inbounds nuw i8, ptr %0, i64 112
  tail call void @_ZN7rocksdb4port5Mutex4LockEv(ptr noundef nonnull align 8 dereferenceable(40) %2)
  %3 = getelementptr inbounds nuw i8, ptr %0, i64 96
  %4 = load i8, ptr %3, align 8, !tbaa !70, !range !68, !noundef !69
  invoke void @_ZN7rocksdb4port5Mutex6UnlockEv(ptr noundef nonnull align 8 dereferenceable(40) %2)
          to label %_ZN7rocksdb9MutexLockD2Ev.exit unwind label %5

5:                                                ; preds = %1
  %6 = landingpad { ptr, i32 }
          catch ptr null
  %7 = extractvalue { ptr, i32 } %6, 0
  tail call void @__clang_call_terminate(ptr %7) #24
  unreachable

_ZN7rocksdb9MutexLockD2Ev.exit:                   ; preds = %1
  %8 = trunc nuw i8 %4 to i1
  ret i1 %8
}